target datalayout = "e-m:e-p270:32:32-p271:32:32-p272:64:64-i64:64-i128:128-f80:128-n8:16:32:64-S128"
target triple = "x86_64-pc-linux-gnu"

%struct._xml_ns_t = type { ptr, ptr, i32, i32, i32, ptr, ptr, ptr }
%struct.__va_list_tag = type { i32, i32, ptr, ptr }

; Function Attrs: null_pointer_is_valid sspstrong uwtable
define internal ptr @xml_new_namespace(ptr noundef %0, ptr noundef %1, ...) #3 {
  %3 = alloca ptr, align 8
  %4 = alloca ptr, align 8
  %5 = alloca ptr, align 8
  %6 = alloca [1 x %struct.__va_list_tag], align 16
  %7 = alloca ptr, align 8
  %8 = alloca ptr, align 8
  store ptr %0, ptr %3, align 8
  store ptr %1, ptr %4, align 8
  call void @llvm.lifetime.start.p0(i64 8, ptr %5) #10
  %9 = call ptr @wmem_epan_scope()
  %10 = call noalias ptr @wmem_alloc(ptr noundef %9, i64 noundef 56) #12
  store ptr %10, ptr %5, align 8
  call void @llvm.lifetime.start.p0(i64 24, ptr %6) #10
  call void @llvm.lifetime.start.p0(i64 8, ptr %7) #10
  %11 = call ptr @wmem_epan_scope()
  %12 = load ptr, ptr %4, align 8
  %13 = call noalias ptr @wmem_strdup(ptr noundef %11, ptr noundef %12)
  %14 = load ptr, ptr %5, align 8
  %15 = getelementptr inbounds nuw %struct._xml_ns_t, ptr %14, i32 0, i32 0
  store ptr %13, ptr %15, align 8
  %16 = load ptr, ptr %5, align 8
  %17 = getelementptr inbounds nuw %struct._xml_ns_t, ptr %16, i32 0, i32 2
  store i32 -1, ptr %17, align 8
  %18 = load ptr, ptr %5, align 8
  %19 = getelementptr inbounds nuw %struct._xml_ns_t, ptr %18, i32 0, i32 3
  store i32 -1, ptr %19, align 4
  %20 = load ptr, ptr %5, align 8
  %21 = getelementptr inbounds nuw %struct._xml_ns_t, ptr %20, i32 0, i32 4
  store i32 -1, ptr %21, align 8
  %22 = call ptr @wmem_epan_scope()
  %23 = call noalias ptr @wmem_map_new(ptr noundef %22, ptr noundef @g_str_hash, ptr noundef @g_str_equal)
  %24 = load ptr, ptr %5, align 8
  %25 = getelementptr inbounds nuw %struct._xml_ns_t, ptr %24, i32 0, i32 5
  store ptr %23, ptr %25, align 8
  %26 = load ptr, ptr %5, align 8
  %27 = getelementptr inbounds nuw %struct._xml_ns_t, ptr %26, i32 0, i32 6
  store ptr null, ptr %27, align 8
  %28 = getelementptr inbounds [1 x %struct.__va_list_tag], ptr %6, i64 0, i64 0
  call void @llvm.va_start.p0(ptr %28)
  br label %29

29:                                               ; preds = %47, %2
  %30 = getelementptr inbounds [1 x %struct.__va_list_tag], ptr %6, i64 0, i64 0
  %31 = getelementptr inbounds nuw %struct.__va_list_tag, ptr %30, i32 0, i32 0
  %32 = load i32, ptr %31, align 16
  %33 = icmp ule i32 %32, 40
  br i1 %33, label %34, label %39

34:                                               ; preds = %29
  %35 = getelementptr inbounds nuw %struct.__va_list_tag, ptr %30, i32 0, i32 3
  %36 = load ptr, ptr %35, align 16
  %37 = getelementptr i8, ptr %36, i32 %32
  %38 = add i32 %32, 8
  store i32 %38, ptr %31, align 16
  br label %43

39:                                               ; preds = %29
  %40 = getelementptr inbounds nuw %struct.__va_list_tag, ptr %30, i32 0, i32 2
  %41 = load ptr, ptr %40, align 8
  %42 = getelementptr i8, ptr %41, i32 8
  store ptr %42, ptr %40, align 8
  br label %43

43:                                               ; preds = %39, %34
  %44 = phi ptr [ %37, %34 ], [ %41, %39 ]
  %45 = load ptr, ptr %44, align 8
  store ptr %45, ptr %7, align 8
  %46 = icmp ne ptr %45, null
  br i1 %46, label %47, label %59

47:                                               ; preds = %43
  call void @llvm.lifetime.start.p0(i64 8, ptr %8) #10
  %48 = call ptr @wmem_epan_scope()
  %49 = call noalias ptr @wmem_alloc(ptr noundef %48, i64 noundef 4) #12
  store ptr %49, ptr %8, align 8
  %50 = load ptr, ptr %8, align 8
  store i32 -1, ptr %50, align 4
  %51 = load ptr, ptr %5, align 8
  %52 = getelementptr inbounds nuw %struct._xml_ns_t, ptr %51, i32 0, i32 5
  %53 = load ptr, ptr %52, align 8
  %54 = call ptr @wmem_epan_scope()
  %55 = load ptr, ptr %7, align 8
  %56 = call noalias ptr @wmem_strdup(ptr noundef %54, ptr noundef %55)
  %57 = load ptr, ptr %8, align 8
  %58 = call ptr @wmem_map_insert(ptr noundef %53, ptr noundef %56, ptr noundef %57)
  call void @llvm.lifetime.end.p0(i64 8, ptr %8) #10
  br label %29, !llvm.loop !15

59:                                               ; preds = %43
  %60 = getelementptr inbounds [1 x %struct.__va_list_tag], ptr %6, i64 0, i64 0
  call void @llvm.va_end.p0(ptr %60)
  %61 = load ptr, ptr %3, align 8
  %62 = load ptr, ptr %5, align 8
  %63 = getelementptr inbounds nuw %struct._xml_ns_t, ptr %62, i32 0, i32 0
  %64 = load ptr, ptr %63, align 8
  %65 = load ptr, ptr %5, align 8
  %66 = call ptr @wmem_map_insert(ptr noundef %61, ptr noundef %64, ptr noundef %65)
  %67 = load ptr, ptr %5, align 8
  call void @llvm.lifetime.end.p0(i64 8, ptr %7) #10
  call void @llvm.lifetime.end.p0(i64 24, ptr %6) #10
  call void @llvm.lifetime.end.p0(i64 8, ptr %5) #10
  ret ptr %67
}