; Function Attrs: null_pointer_is_valid sspstrong uwtable
define internal void @xml_new_namespace(ptr noundef %0, ptr readnone captures(none) %1, ...) unnamed_addr #4 {
  %3 = alloca [1 x %struct.__va_list_tag], align 16
  %4 = tail call ptr @wmem_epan_scope()
  %5 = tail call noalias dereferenceable_or_null(56) ptr @wmem_alloc(ptr noundef %4, i64 noundef 56) #13
  call void @llvm.lifetime.start.p0(i64 24, ptr nonnull %3) #14
  %6 = tail call ptr @wmem_epan_scope()
  %7 = tail call noalias ptr @wmem_strdup(ptr noundef %6, ptr noundef nonnull @.str.35)
  store ptr %7, ptr %5, align 8
  %8 = getelementptr inbounds nuw i8, ptr %5, i64 16
  store i32 -1, ptr %8, align 8
  %9 = getelementptr inbounds nuw i8, ptr %5, i64 20
  store i32 -1, ptr %9, align 4
  %10 = getelementptr inbounds nuw i8, ptr %5, i64 24
  store i32 -1, ptr %10, align 8
  %11 = tail call ptr @wmem_epan_scope()
  %12 = tail call noalias ptr @wmem_map_new(ptr noundef %11, ptr noundef nonnull @g_str_hash, ptr noundef nonnull @g_str_equal)
  %13 = getelementptr inbounds nuw i8, ptr %5, i64 32
  store ptr %12, ptr %13, align 8
  %14 = getelementptr inbounds nuw i8, ptr %5, i64 40
  store ptr null, ptr %14, align 8
  call void @llvm.va_start.p0(ptr nonnull %3)
  %15 = getelementptr inbounds nuw i8, ptr %3, i64 8
  %16 = getelementptr inbounds nuw i8, ptr %3, i64 16
  br label %17

17:                                               ; preds = %31, %2
  %18 = load i32, ptr %3, align 16
  %19 = icmp ult i32 %18, 41
  br i1 %19, label %20, label %25

20:                                               ; preds = %17
  %21 = load ptr, ptr %16, align 16
  %22 = zext nneg i32 %18 to i64
  %23 = getelementptr i8, ptr %21, i64 %22
  %24 = add nuw nsw i32 %18, 8
  store i32 %24, ptr %3, align 16
  br label %28

25:                                               ; preds = %17
  %26 = load ptr, ptr %15, align 8
  %27 = getelementptr i8, ptr %26, i64 8
  store ptr %27, ptr %15, align 8
  br label %28

28:                                               ; preds = %25, %20
  %29 = phi ptr [ %23, %20 ], [ %26, %25 ]
  %30 = load ptr, ptr %29, align 8
  %.not = icmp eq ptr %30, null
  br i1 %.not, label %37, label %31

31:                                               ; preds = %28
  %32 = call ptr @wmem_epan_scope()
  %33 = call noalias dereferenceable_or_null(4) ptr @wmem_alloc(ptr noundef %32, i64 noundef 4) #13
  store i32 -1, ptr %33, align 4
  %34 = call ptr @wmem_epan_scope()
  %35 = call noalias ptr @wmem_strdup(ptr noundef %34, ptr noundef nonnull %30)
  %36 = call ptr @wmem_map_insert(ptr noundef %12, ptr noundef %35, ptr noundef %33)
  br label %17, !llvm.loop !22

37:                                               ; preds = %28
  call void @llvm.va_end.p0(ptr nonnull %3)
  %38 = call ptr @wmem_map_insert(ptr noundef %0, ptr noundef %7, ptr noundef %5)
  call void @llvm.lifetime.end.p0(i64 24, ptr nonnull %3) #14
  ret void
}